; Function Attrs: nounwind uwtable
define dso_local noundef ptr @SPI_prepare_cursor(ptr noundef %0, i32 noundef %1, ptr noundef %2, i32 noundef %3) local_unnamed_addr #0 {
  %5 = alloca %struct._SPI_plan, align 8
  call void @llvm.lifetime.start.p0(i64 64, ptr nonnull %5) #15
  %6 = icmp eq ptr %0, null
  %7 = icmp slt i32 %1, 0
  %or.cond = or i1 %6, %7
  br i1 %or.cond, label %11, label %8

8:                                                ; preds = %4
  %9 = icmp ne i32 %1, 0
  %10 = icmp eq ptr %2, null
  %or.cond3 = and i1 %9, %10
  br i1 %or.cond3, label %11, label %12

11:                                               ; preds = %8, %4
  store i32 -6, ptr @SPI_result, align 4
  br label %30

12:                                               ; preds = %8
  %13 = load ptr, ptr @_SPI_current, align 8
  %.not = icmp eq ptr %13, null
  br i1 %.not, label %_SPI_begin_call.exit, label %_SPI_begin_call.exit.thread

_SPI_begin_call.exit.thread:                      ; preds = %12
  %14 = tail call i32 @GetCurrentSubTransactionId() #15
  %15 = load ptr, ptr @_SPI_current, align 8
  %16 = getelementptr inbounds nuw i8, ptr %15, i64 16
  store i32 %14, ptr %16, align 8
  %17 = getelementptr inbounds nuw i8, ptr %15, i64 40
  %18 = load ptr, ptr %17, align 8
  store ptr %18, ptr @CurrentMemoryContext, align 8
  store i32 0, ptr @SPI_result, align 4
  call void @llvm.memset.p0.i64(ptr noundef nonnull align 8 dereferenceable(64) %5, i8 0, i64 40, i1 false)
  store i32 569278163, ptr %5, align 8
  %19 = getelementptr inbounds nuw i8, ptr %5, i64 28
  store i32 %3, ptr %19, align 4
  %20 = getelementptr inbounds nuw i8, ptr %5, i64 32
  store i32 %1, ptr %20, align 8
  %21 = getelementptr inbounds nuw i8, ptr %5, i64 40
  store ptr %2, ptr %21, align 8
  %22 = getelementptr inbounds nuw i8, ptr %5, i64 48
  call void @llvm.memset.p0.i64(ptr noundef nonnull align 8 dereferenceable(16) %22, i8 0, i64 16, i1 false)
  call fastcc void @_SPI_prepare_plan(ptr noundef %0, ptr noundef %5)
  %23 = call fastcc ptr @_SPI_make_plan_non_temp(ptr noundef %5)
  %24 = load ptr, ptr @_SPI_current, align 8
  %25 = getelementptr inbounds nuw i8, ptr %24, i64 32
  %26 = load ptr, ptr %25, align 8
  store ptr %26, ptr @CurrentMemoryContext, align 8
  %27 = getelementptr inbounds nuw i8, ptr %24, i64 16
  store i32 0, ptr %27, align 8
  %28 = getelementptr inbounds nuw i8, ptr %24, i64 40
  %29 = load ptr, ptr %28, align 8
  tail call void @MemoryContextReset(ptr noundef %29) #15
  br label %30

_SPI_begin_call.exit:                             ; preds = %12
  store i32 -4, ptr @SPI_result, align 4
  br label %30

30:                                               ; preds = %_SPI_begin_call.exit, %_SPI_begin_call.exit.thread, %11
  %.0 = phi ptr [ null, %11 ], [ %23, %_SPI_begin_call.exit.thread ], [ null, %_SPI_begin_call.exit ]
  call void @llvm.lifetime.end.p0(i64 64, ptr nonnull %5) #15
  ret ptr %.0
}